; Function Attrs: mustprogress uwtable
define dso_local void @_ZN16btCollisionWorld11updateAabbsEv(ptr nocapture noundef nonnull readonly align 8 dereferenceable(121) %this) unnamed_addr #4 align 2 personality ptr @__gxx_personality_v0 {
entry:
  %__profile = alloca %class.CProfileSample, align 1
  call void @_ZN14CProfileSampleC1EPKc(ptr noundef nonnull align 1 dereferenceable(1) %__profile, ptr noundef nonnull @.str.4)
  %m_size.i = getelementptr inbounds i8, ptr %this, i64 12
  %0 = load i32, ptr %m_size.i, align 4
  %cmp4 = icmp sgt i32 %0, 0
  br i1 %cmp4, label %for.body.lr.ph, label %for.end

for.body.lr.ph:                                   ; preds = %entry
  %m_data.i = getelementptr inbounds i8, ptr %this, i64 24
  %m_forceUpdateAllAabbs = getelementptr inbounds i8, ptr %this, i64 120
  br label %for.body

for.body:                                         ; preds = %for.body.lr.ph, %for.inc
  %1 = phi i32 [ %0, %for.body.lr.ph ], [ %8, %for.inc ]
  %indvars.iv = phi i64 [ 0, %for.body.lr.ph ], [ %indvars.iv.next, %for.inc ]
  %2 = load ptr, ptr %m_data.i, align 8
  %arrayidx.i = getelementptr inbounds ptr, ptr %2, i64 %indvars.iv
  %3 = load ptr, ptr %arrayidx.i, align 8
  %4 = load i8, ptr %m_forceUpdateAllAabbs, align 8
  %5 = and i8 %4, 1
  %tobool.not = icmp eq i8 %5, 0
  br i1 %tobool.not, label %lor.lhs.false, label %if.then

lor.lhs.false:                                    ; preds = %for.body
  %m_activationState1.i.i = getelementptr inbounds i8, ptr %3, i64 240
  %6 = load i32, ptr %m_activationState1.i.i, align 8
  switch i32 %6, label %if.then [
    i32 6, label %for.inc
    i32 2, label %for.inc
    i32 5, label %for.inc
  ]

if.then:                                          ; preds = %lor.lhs.false, %for.body
  invoke void @_ZN16btCollisionWorld16updateSingleAabbEP17btCollisionObject(ptr noundef nonnull align 8 dereferenceable(121) %this, ptr noundef %3)
          to label %if.then.for.inc_crit_edge unwind label %lpad

if.then.for.inc_crit_edge:                        ; preds = %if.then
  %.pre = load i32, ptr %m_size.i, align 4
  br label %for.inc

lpad:                                             ; preds = %if.then
  %7 = landingpad { ptr, i32 }
          cleanup
  call void @_ZN14CProfileSampleD1Ev(ptr noundef nonnull align 1 dereferenceable(1) %__profile) #19
  resume { ptr, i32 } %7

for.inc:                                          ; preds = %if.then.for.inc_crit_edge, %lor.lhs.false, %lor.lhs.false, %lor.lhs.false
  %8 = phi i32 [ %.pre, %if.then.for.inc_crit_edge ], [ %1, %lor.lhs.false ], [ %1, %lor.lhs.false ], [ %1, %lor.lhs.false ]
  %indvars.iv.next = add nuw nsw i64 %indvars.iv, 1
  %9 = sext i32 %8 to i64
  %cmp = icmp slt i64 %indvars.iv.next, %9
  br i1 %cmp, label %for.body, label %for.end, !llvm.loop !8

for.end:                                          ; preds = %for.inc, %entry
  call void @_ZN14CProfileSampleD1Ev(ptr noundef nonnull align 1 dereferenceable(1) %__profile) #19
  ret void
}